; ModuleID = '43/13.c'
source_filename = "43/13.c"
target datalayout = "e-m:e-p270:32:32-p271:32:32-p272:64:64-i64:64-f80:128-n8:16:32:64-S128"
target triple = "x86_64-pc-linux-gnu"

@.str = private unnamed_addr constant [3 x i8] c"%d\00", align 1
@.str.1 = private unnamed_addr constant [7 x i8] c"%d %d\0A\00", align 1

; Function Attrs: noinline nounwind uwtable
define dso_local i32 @f(i32 %0) #0 {
  %2 = alloca i32, align 4
  %3 = alloca i32, align 4
  %4 = alloca i32, align 4
  %5 = alloca i32, align 4
  store i32 %0, i32* %3, align 4
  store i32 0, i32* %5, align 4
  %6 = load i32, i32* %3, align 4
  %7 = icmp eq i32 %6, 2
  br i1 %7, label %8, label %9

8:                                                ; preds = %1
  store i32 0, i32* %2, align 4
  br label %33

9:                                                ; preds = %1
  store i32 2, i32* %4, align 4
  br label %10

10:                                               ; preds = %23, %9
  %11 = load i32, i32* %4, align 4
  %12 = load i32, i32* %3, align 4
  %13 = icmp slt i32 %11, %12
  br i1 %13, label %14, label %26

14:                                               ; preds = %10
  %15 = load i32, i32* %3, align 4
  %16 = load i32, i32* %4, align 4
  %17 = srem i32 %15, %16
  %18 = icmp eq i32 %17, 0
  br i1 %18, label %19, label %20

19:                                               ; preds = %14
  br label %26

20:                                               ; preds = %14
  %21 = load i32, i32* %5, align 4
  %22 = add nsw i32 %21, 1
  store i32 %22, i32* %5, align 4
  br label %23

23:                                               ; preds = %20
  %24 = load i32, i32* %4, align 4
  %25 = add nsw i32 %24, 1
  store i32 %25, i32* %4, align 4
  br label %10

26:                                               ; preds = %19, %10
  %27 = load i32, i32* %5, align 4
  %28 = load i32, i32* %3, align 4
  %29 = sub nsw i32 %28, 2
  %30 = icmp eq i32 %27, %29
  br i1 %30, label %31, label %32

31:                                               ; preds = %26
  store i32 0, i32* %2, align 4
  br label %33

32:                                               ; preds = %26
  store i32 1, i32* %2, align 4
  br label %33

33:                                               ; preds = %32, %31, %8
  %34 = load i32, i32* %2, align 4
  ret i32 %34
}

; Function Attrs: noinline nounwind uwtable
define dso_local i32 @main() #0 {
  %1 = alloca i32, align 4
  %2 = alloca i32, align 4
  %3 = alloca i32, align 4
  %4 = alloca i32, align 4
  %5 = alloca i32, align 4
  %6 = alloca i32, align 4
  %7 = alloca i32, align 4
  %8 = alloca [100 x i32], align 16
  store i32 0, i32* %1, align 4
  store i32 0, i32* %5, align 4
  br label %9

9:                                                ; preds = %16, %0
  %10 = load i32, i32* %5, align 4
  %11 = icmp slt i32 %10, 100
  br i1 %11, label %12, label %19

12:                                               ; preds = %9
  %13 = load i32, i32* %5, align 4
  %14 = sext i32 %13 to i64
  %15 = getelementptr inbounds [100 x i32], [100 x i32]* %8, i64 0, i64 %14
  store i32 0, i32* %15, align 4
  br label %16

16:                                               ; preds = %12
  %17 = load i32, i32* %5, align 4
  %18 = add nsw i32 %17, 1
  store i32 %18, i32* %5, align 4
  br label %9

19:                                               ; preds = %9
  %20 = call i32 (i8*, ...) @__isoc99_scanf(i8* getelementptr inbounds ([3 x i8], [3 x i8]* @.str, i64 0, i64 0), i32* %2)
  store i32 0, i32* %6, align 4
  store i32 2, i32* %3, align 4
  br label %21

21:                                               ; preds = %37, %19
  %22 = load i32, i32* %3, align 4
  %23 = load i32, i32* %2, align 4
  %24 = icmp sle i32 %22, %23
  br i1 %24, label %25, label %40

25:                                               ; preds = %21
  %26 = load i32, i32* %3, align 4
  %27 = call i32 @f(i32 %26)
  %28 = icmp eq i32 %27, 0
  br i1 %28, label %29, label %36

29:                                               ; preds = %25
  %30 = load i32, i32* %3, align 4
  %31 = load i32, i32* %6, align 4
  %32 = sext i32 %31 to i64
  %33 = getelementptr inbounds [100 x i32], [100 x i32]* %8, i64 0, i64 %32
  store i32 %30, i32* %33, align 4
  %34 = load i32, i32* %6, align 4
  %35 = add nsw i32 %34, 1
  store i32 %35, i32* %6, align 4
  br label %36

36:                                               ; preds = %29, %25
  br label %37

37:                                               ; preds = %36
  %38 = load i32, i32* %3, align 4
  %39 = add nsw i32 %38, 1
  store i32 %39, i32* %3, align 4
  br label %21

40:                                               ; preds = %21
  store i32 0, i32* %5, align 4
  br label %41

41:                                               ; preds = %79, %40
  %42 = load i32, i32* %5, align 4
  %43 = load i32, i32* %6, align 4
  %44 = icmp slt i32 %42, %43
  br i1 %44, label %45, label %82

45:                                               ; preds = %41
  %46 = load i32, i32* %2, align 4
  %47 = load i32, i32* %5, align 4
  %48 = sext i32 %47 to i64
  %49 = getelementptr inbounds [100 x i32], [100 x i32]* %8, i64 0, i64 %48
  %50 = load i32, i32* %49, align 4
  %51 = sub nsw i32 %46, %50
  store i32 %51, i32* %4, align 4
  %52 = load i32, i32* %5, align 4
  store i32 %52, i32* %7, align 4
  br label %53

53:                                               ; preds = %75, %45
  %54 = load i32, i32* %7, align 4
  %55 = load i32, i32* %6, align 4
  %56 = icmp slt i32 %54, %55
  br i1 %56, label %57, label %78

57:                                               ; preds = %53
  %58 = load i32, i32* %4, align 4
  %59 = load i32, i32* %7, align 4
  %60 = sext i32 %59 to i64
  %61 = getelementptr inbounds [100 x i32], [100 x i32]* %8, i64 0, i64 %60
  %62 = load i32, i32* %61, align 4
  %63 = icmp eq i32 %58, %62
  br i1 %63, label %64, label %74

64:                                               ; preds = %57
  %65 = load i32, i32* %5, align 4
  %66 = sext i32 %65 to i64
  %67 = getelementptr inbounds [100 x i32], [100 x i32]* %8, i64 0, i64 %66
  %68 = load i32, i32* %67, align 4
  %69 = load i32, i32* %7, align 4
  %70 = sext i32 %69 to i64
  %71 = getelementptr inbounds [100 x i32], [100 x i32]* %8, i64 0, i64 %70
  %72 = load i32, i32* %71, align 4
  %73 = call i32 (i8*, ...) @printf(i8* getelementptr inbounds ([7 x i8], [7 x i8]* @.str.1, i64 0, i64 0), i32 %68, i32 %72)
  br label %74

74:                                               ; preds = %64, %57
  br label %75

75:                                               ; preds = %74
  %76 = load i32, i32* %7, align 4
  %77 = add nsw i32 %76, 1
  store i32 %77, i32* %7, align 4
  br label %53

78:                                               ; preds = %53
  br label %79

79:                                               ; preds = %78
  %80 = load i32, i32* %5, align 4
  %81 = add nsw i32 %80, 1
  store i32 %81, i32* %5, align 4
  br label %41

82:                                               ; preds = %41
  %83 = load i32, i32* %1, align 4
  ret i32 %83
}

declare dso_local i32 @__isoc99_scanf(i8*, ...) #1

declare dso_local i32 @printf(i8*, ...) #1


!llvm.module.flags = !{!0}
!llvm.ident = !{!1}

!0 = !{i32 1, !"wchar_size", i32 4}
!1 = !{!"clang version 10.0.0-4ubuntu1 "}
